; Function Attrs: mustprogress uwtable
define void @_ZN2cv3dnn14dnn4_v2024122316NaryEltwiseLayer6createERKNS1_11LayerParamsE(ptr dead_on_unwind noalias writable sret(%"struct.cv::Ptr") align 8 %0, ptr noundef nonnull align 8 dereferenceable(136) %1) local_unnamed_addr #3 align 2 personality ptr @__gxx_personality_v0 {
  %3 = tail call noalias noundef nonnull dereferenceable(272) ptr @_Znwm(i64 noundef 272) #22
  invoke void @_ZN2cv3dnn20NaryEltwiseLayerImplC2ERKNS0_14dnn4_v2024122311LayerParamsE(ptr noundef nonnull align 8 dereferenceable(272) %3, ptr noundef nonnull align 8 dereferenceable(136) %1)
          to label %4 unwind label %6

4:                                                ; preds = %2
  store ptr %3, ptr %0, align 8, !tbaa !3
  %5 = getelementptr inbounds nuw i8, ptr %0, i64 8
  tail call void @_ZNSt14__shared_countILN9__gnu_cxx12_Lock_policyE2EEC2IPN2cv3dnn20NaryEltwiseLayerImplEEET_(ptr noundef nonnull align 8 dereferenceable(8) %5, ptr noundef nonnull %3)
  ret void

6:                                                ; preds = %2
  %7 = landingpad { ptr, i32 }
          cleanup
  tail call void @_ZdlPv(ptr noundef nonnull %3) #23
  resume { ptr, i32 } %7
}